target datalayout = "e-m:e-p270:32:32-p271:32:32-p272:64:64-i64:64-i128:128-f80:128-n8:16:32:64-S128"
target triple = "x86_64-pc-linux-gnu"

%struct.Agi_Man_t_ = type { ptr, ptr, i32, i32, i32, i32, i32, %struct.Vec_Int_t_, %struct.Vec_Int_t_, ptr, ptr, ptr, ptr, ptr, ptr }
%struct.Vec_Int_t_ = type { i32, i32, ptr }

; Function Attrs: inlinehint nounwind uwtable
define internal i32 @Abc_MaxInt(i32 noundef %0, i32 noundef %1) #2 {
  %3 = alloca i32, align 4
  %4 = alloca i32, align 4
  store i32 %0, ptr %3, align 4, !tbaa !3
  store i32 %1, ptr %4, align 4, !tbaa !3
  %5 = load i32, ptr %3, align 4, !tbaa !3
  %6 = load i32, ptr %4, align 4, !tbaa !3
  %7 = icmp sgt i32 %5, %6
  br i1 %7, label %8, label %10

8:                                                ; preds = %2
  %9 = load i32, ptr %3, align 4, !tbaa !3
  br label %12

10:                                               ; preds = %2
  %11 = load i32, ptr %4, align 4, !tbaa !3
  br label %12

12:                                               ; preds = %10, %8
  %13 = phi i32 [ %9, %8 ], [ %11, %10 ]
  ret i32 %13
}

; Function Attrs: nounwind uwtable
define ptr @Agi_ManAlloc(i32 noundef %0) #0 {
  %2 = alloca i32, align 4
  %3 = alloca ptr, align 8
  store i32 %0, ptr %2, align 4, !tbaa !3
  call void @llvm.lifetime.start.p0(i64 8, ptr %3) #10
  %4 = load i32, ptr %2, align 4, !tbaa !3
  %5 = call i32 @Abc_MaxInt(i32 noundef %4, i32 noundef 16)
  store i32 %5, ptr %2, align 4, !tbaa !3
  %6 = call noalias ptr @calloc(i64 noundef 1, i64 noundef 120) #11
  store ptr %6, ptr %3, align 8, !tbaa !7
  %7 = load i32, ptr %2, align 4, !tbaa !3
  %8 = load ptr, ptr %3, align 8, !tbaa !7
  %9 = getelementptr inbounds nuw %struct.Agi_Man_t_, ptr %8, i32 0, i32 2
  store i32 %7, ptr %9, align 8, !tbaa !10
  %10 = load i32, ptr %2, align 4, !tbaa !3
  %11 = sext i32 %10 to i64
  %12 = call noalias ptr @calloc(i64 noundef %11, i64 noundef 8) #11
  %13 = load ptr, ptr %3, align 8, !tbaa !7
  %14 = getelementptr inbounds nuw %struct.Agi_Man_t_, ptr %13, i32 0, i32 9
  store ptr %12, ptr %14, align 8, !tbaa !16
  %15 = load i32, ptr %2, align 4, !tbaa !3
  %16 = sext i32 %15 to i64
  %17 = call noalias ptr @calloc(i64 noundef %16, i64 noundef 4) #11
  %18 = load ptr, ptr %3, align 8, !tbaa !7
  %19 = getelementptr inbounds nuw %struct.Agi_Man_t_, ptr %18, i32 0, i32 11
  store ptr %17, ptr %19, align 8, !tbaa !17
  %20 = load ptr, ptr %3, align 8, !tbaa !7
  %21 = getelementptr inbounds nuw %struct.Agi_Man_t_, ptr %20, i32 0, i32 9
  %22 = load ptr, ptr %21, align 8, !tbaa !16
  %23 = getelementptr inbounds i64, ptr %22, i64 0
  store i64 -17179869190, ptr %23, align 8, !tbaa !18
  %24 = load ptr, ptr %3, align 8, !tbaa !7
  %25 = getelementptr inbounds nuw %struct.Agi_Man_t_, ptr %24, i32 0, i32 3
  store i32 1, ptr %25, align 4, !tbaa !20
  %26 = load ptr, ptr %3, align 8, !tbaa !7
  call void @llvm.lifetime.end.p0(i64 8, ptr %3) #10
  ret ptr %26
}