; Function Attrs: mustprogress nofree nounwind willreturn memory(write, argmem: none, inaccessiblemem: readwrite) uwtable
define noalias noundef ptr @Agi_ManAlloc(i32 noundef %0) local_unnamed_addr #0 {
  %2 = tail call noundef range(i32 16, -2147483648) i32 @llvm.smax.i32(i32 %0, i32 16)
  %3 = tail call noalias dereferenceable_or_null(120) ptr @calloc(i64 noundef 1, i64 noundef 120) #16
  %4 = getelementptr inbounds nuw i8, ptr %3, i64 16
  store i32 %2, ptr %4, align 8, !tbaa !3
  %5 = zext nneg i32 %2 to i64
  %6 = tail call noalias ptr @calloc(i64 noundef %5, i64 noundef 8) #16
  %7 = getelementptr inbounds nuw i8, ptr %3, i64 72
  store ptr %6, ptr %7, align 8, !tbaa !13
  %8 = tail call noalias ptr @calloc(i64 noundef %5, i64 noundef 4) #16
  %9 = getelementptr inbounds nuw i8, ptr %3, i64 88
  store ptr %8, ptr %9, align 8, !tbaa !14
  store i64 -17179869190, ptr %6, align 8, !tbaa !15
  %10 = getelementptr inbounds nuw i8, ptr %3, i64 20
  store i32 1, ptr %10, align 4, !tbaa !17
  ret ptr %3
}